Certificate:
    Data:
        Version: 3 (0x2)
        Serial Number:
            44:17:ee:cd:f9:cb:58:6c:e9:bf:35:ce:4e:99:1a:fc
        Signature Algorithm: sha256WithRSAEncryption
        Issuer: CN=pki.example.tld
        Validity
            Not Before: Feb 17 15:46:04 2025 GMT
            Not After : Jan 24 15:46:04 2125 GMT
        Subject: CN=client.example.tld
        Subject Public Key Info:
            Public Key Algorithm: rsaEncryption
                Public-Key: (2048 bit)
                Modulus:
                    00:b8:ea:33:e7:f9:e4:98:8c:0b:87:fb:83:79:41:
                    e3:75:40:09:11:b1:88:60:58:06:6d:cd:46:66:33:
                    2b:5c:cb:7a:d2:cd:09:58:4d:e6:9e:27:d3:93:aa:
                    af:7d:3b:46:b3:c0:fa:12:34:56:fc:c0:b1:97:8e:
                    8a:80:91:81:60:cf:7f:9c:f5:11:55:f7:0d:3c:3b:
                    7d:aa:98:54:c7:5c:ab:2b:61:bf:ac:5b:16:01:9e:
                    b6:6c:4f:6d:9f:98:b9:61:39:81:8f:93:b7:42:ad:
                    72:8b:aa:87:6a:8e:ed:eb:83:f9:e1:36:a4:0c:f5:
                    9c:d2:a1:8a:64:3f:bd:99:24:4c:a8:31:52:54:4d:
                    31:73:fc:c1:69:66:33:44:8d:93:65:32:2a:2c:6f:
                    11:3d:b9:38:69:b8:66:00:86:75:b3:09:ad:3f:c8:
                    d4:77:08:8b:dc:5c:4d:33:2e:61:5d:0e:5c:f4:8d:
                    87:d9:7c:85:1b:88:ab:bb:1d:7d:69:d9:2f:52:a8:
                    54:86:b1:e2:96:96:35:57:04:ec:c4:8d:e7:2a:83:
                    bf:25:f5:a3:57:04:c6:55:9e:b5:e7:d6:15:b5:ec:
                    81:c9:76:16:1a:71:14:cc:bf:68:3f:3e:d9:d7:b1:
                    72:db:3d:e9:2e:22:84:bb:f2:10:6a:6b:9f:90:99:
                    02:31
                Exponent: 65537 (0x10001)
        X509v3 extensions:
            X509v3 Basic Constraints: 
                CA:FALSE
            X509v3 Subject Key Identifier: 
                7C:EE:34:C1:EB:D1:2C:2D:8C:92:17:24:6F:FA:0D:1E:4B:04:11:39
            X509v3 Authority Key Identifier: 
                keyid:E3:67:CD:D9:C1:9D:4E:67:F5:9E:09:2D:D2:3B:AB:85:DE:5A:80:42
                DirName:/CN=pki.example.tld
                serial:24:D3:23:CA:39:B3:4F:98:3D:6E:B9:B2:A0:4E:09:47:A1:21:BA:BA
            X509v3 Extended Key Usage: 
                TLS Web Client Authentication
            X509v3 Key Usage: 
                Digital Signature
    Signature Algorithm: sha256WithRSAEncryption
    Signature Value:
        aa:6d:8f:25:a0:83:c1:b3:c8:ce:ee:25:7f:ba:27:08:be:7f:
        5f:ba:a8:d6:61:67:69:1d:13:6a:16:d0:ea:b6:f6:58:1a:bf:
        da:a8:b7:2e:f2:88:36:51:db:8c:1a:9b:7c:04:88:6a:a5:b8:
        a8:74:e1:94:0f:30:00:d0:10:81:a3:d8:86:e0:5b:5e:b6:90:
        eb:78:71:db:c7:a5:31:df:da:6a:6e:a6:bc:41:98:bf:44:27:
        f4:42:f6:68:1b:39:1f:0d:da:9e:1a:f2:0c:6e:a5:b1:0a:60:
        a0:cb:cd:c4:f4:21:19:04:4a:e5:bf:d7:f6:3f:63:00:c6:f2:
        65:3a:7c:7a:16:f6:2f:ce:f8:3a:02:2e:7a:f1:62:75:73:a0:
        f2:04:75:dd:bc:53:63:43:d1:35:f0:56:23:43:7f:8b:3b:13:
        5d:de:97:61:60:40:d8:20:11:00:76:1f:56:c1:04:37:77:9f:
        8f:08:1c:ee:e8:4d:46:17:a9:11:77:5c:d9:7e:3f:d1:48:21:
        e7:fa:f8:93:a1:be:d0:fe:10:53:23:cc:de:7e:3c:82:ba:9f:
        8f:aa:c4:4d:a4:ef:c0:ff:9d:be:e7:4b:f3:80:68:5d:94:09:
        90:8a:cb:cd:06:d6:81:f1:9a:29:82:54:45:ff:9e:af:1b:b5:
        61:fe:d7:35:5b:0d:85:8e:80:91:93:21:dd:b5:77:0f:bc:40:
        f2:ee:04:5c:f7:ce:69:83:dd:7c:01:c3:11:59:a0:80:5a:54:
        ce:34:c7:19:a3:7e:3a:af:fb:6e:c9:a1:98:1f:f5:a6:05:a6:
        da:f4:13:89:48:67:9b:a1:22:0f:bc:a9:f2:11:02:49:47:8e:
        32:57:23:90:94:c9:ca:ef:6c:2a:94:ab:3d:c0:70:84:4c:1f:
        93:04:9c:6b:ee:3a:7c:bc:e3:a6:3a:90:52:ba:23:c5:81:1f:
        be:fd:47:b6:3e:9e:e9:f2:71:be:bd:9e:66:83:28:3a:e8:af:
        f7:1e:ad:24:39:ad:a2:f1:f6:dc:83:ea:d5:72:5e:d3:31:d8:
        ad:19:f0:10:82:53:48:c2:68:e5:1d:70:4f:00:80:df:13:eb:
        ca:09:2a:a0:33:4a:1e:86:31:6a:99:2a:0b:83:e6:fb:fb:12:
        42:b6:97:ef:71:ef:0f:e2:00:e8:9b:21:16:a9:43:78:ac:01:
        28:2f:bd:b6:ce:53:eb:23:72:9b:30:0d:5b:69:84:17:f3:c3:
        a6:7b:1f:57:0b:6c:10:56:b4:15:8c:c9:8a:c4:d4:b8:86:c1:
        ed:b8:89:49:6e:9d:f9:94:13:d2:f2:c5:eb:47:e5:05:d4:eb:
        98:88:ce:38:d6:ed:b8:47
-----BEGIN CERTIFICATE-----
MIIEajCCAlKgAwIBAgIQRBfuzfnLWGzpvzXOTpka/DANBgkqhkiG9w0BAQsFADAa
MRgwFgYDVQQDDA9wa2kuZXhhbXBsZS50bGQwIBcNMjUwMjE3MTU0NjA0WhgPMjEy
NTAxMjQxNTQ2MDRaMB0xGzAZBgNVBAMMEmNsaWVudC5leGFtcGxlLnRsZDCCASIw
DQYJKoZIhvcNAQEBBQADggEPADCCAQoCggEBALjqM+f55JiMC4f7g3lB43VACRGx
iGBYBm3NRmYzK1zLetLNCVhN5p4n05Oqr307RrPA+hI0VvzAsZeOioCRgWDPf5z1
EVX3DTw7faqYVMdcqythv6xbFgGetmxPbZ+YuWE5gY+Tt0Ktcouqh2qO7euD+eE2
pAz1nNKhimQ/vZkkTKgxUlRNMXP8wWlmM0SNk2UyKixvET25OGm4ZgCGdbMJrT/I
1HcIi9xcTTMuYV0OXPSNh9l8hRuIq7sdfWnZL1KoVIax4paWNVcE7MSN5yqDvyX1
o1cExlWetefWFbXsgcl2FhpxFMy/aD8+2dexcts96S4ihLvyEGprn5CZAjECAwEA
AaOBpjCBozAJBgNVHRMEAjAAMB0GA1UdDgQWBBR87jTB69EsLYySFyRv+g0eSwQR
OTBVBgNVHSMETjBMgBTjZ83ZwZ1OZ/WeCS3SO6uF3lqAQqEepBwwGjEYMBYGA1UE
AwwPcGtpLmV4YW1wbGUudGxkghQk0yPKObNPmD1uubKgTglHoSG6ujATBgNVHSUE
DDAKBggrBgEFBQcDAjALBgNVHQ8EBAMCB4AwDQYJKoZIhvcNAQELBQADggIBAKpt
jyWgg8GzyM7uJX+6Jwi+f1+6qNZhZ2kdE2oW0Oq29lgav9qoty7yiDZR24wam3wE
iGqluKh04ZQPMADQEIGj2IbgW162kOt4cdvHpTHf2mpuprxBmL9EJ/RC9mgbOR8N
2p4a8gxupbEKYKDLzcT0IRkESuW/1/Y/YwDG8mU6fHoW9i/O+DoCLnrxYnVzoPIE
dd28U2ND0TXwViNDf4s7E13el2FgQNggEQB2H1bBBDd3n48IHO7oTUYXqRF3XNl+
P9FIIef6+JOhvtD+EFMjzN5+PIK6n4+qxE2k78D/nb7nS/OAaF2UCZCKy80G1oHx
mimCVEX/nq8btWH+1zVbDYWOgJGTId21dw+8QPLuBFz3zmmD3XwBwxFZoIBaVM40
xxmjfjqv+27JoZgf9aYFptr0E4lIZ5uhIg+8qfIRAklHjjJXI5CUycrvbCqUqz3A
cIRMH5MEnGvuOny846Y6kFK6I8WBH779R7Y+nunycb69nmaDKDror/cerSQ5raLx
9tyD6tVyXtMx2K0Z8BCCU0jCaOUdcE8AgN8T68oJKqAzSh6GMWqZKguD5vv7EkK2
l+9x7w/iAOibIRapQ3isASgvvbbOU+sjcpswDVtphBfzw6Z7H1cLbBBWtBWMyYrE
1LiGwe24iUlunfmUE9LyxetH5QXU65iIzjjW7bhH
-----END CERTIFICATE-----
